; Function Attrs: mustprogress nounwind uwtable
define hidden void @_ZN12stringStreamD0Ev(ptr noundef nonnull align 8 dereferenceable(129) %0) unnamed_addr #0 align 2 {
  store ptr getelementptr inbounds inrange(-16, 40) (i8, ptr @_ZTV12stringStream, i64 16), ptr %0, align 8
  %2 = getelementptr inbounds i8, ptr %0, i64 80
  %3 = load i8, ptr %2, align 8
  %4 = trunc i8 %3 to i1
  br i1 %4, label %_ZN12stringStreamD2Ev.exit, label %5

5:                                                ; preds = %1
  %6 = getelementptr inbounds i8, ptr %0, i64 56
  %7 = load ptr, ptr %6, align 8
  %8 = getelementptr inbounds i8, ptr %0, i64 81
  %.not.i = icmp eq ptr %7, %8
  br i1 %.not.i, label %_ZN12stringStreamD2Ev.exit, label %9

9:                                                ; preds = %5
  tail call void @_Z8FreeHeapPv(ptr noundef %7) #21
  br label %_ZN12stringStreamD2Ev.exit

_ZN12stringStreamD2Ev.exit:                       ; preds = %1, %5, %9
  tail call void @_Z8FreeHeapPv(ptr noundef nonnull %0) #21
  ret void
}